target datalayout = "e-m:e-p270:32:32-p271:32:32-p272:64:64-i64:64-i128:128-f80:128-n8:16:32:64-S128"
target triple = "x86_64-pc-linux-gnu"

%struct.AVCodecContext = type { ptr, i32, i32, ptr, i32, i32, ptr, ptr, ptr, i64, i32, i32, ptr, i32, %struct.AVRational, %struct.AVRational, %struct.AVRational, i32, i32, i32, i32, i32, %struct.AVRational, i32, i32, i32, i32, i32, i32, i32, i32, i32, i32, i32, ptr, ptr, i32, float, float, float, float, float, float, float, float, float, i32, i32, i32, i32, i32, i32, i32, i32, i32, i32, i32, i32, ptr, ptr, ptr, i32, i32, i32, i32, i32, i32, i32, i32, i32, i32, %struct.AVChannelLayout, i32, i32, i32, i32, i32, i32, i32, i32, ptr, i32, i32, i32, float, float, i32, i32, i32, i32, i32, ptr, i64, i64, float, float, i32, i32, ptr, ptr, i32, i32, i32, i32, i32, ptr, ptr, ptr, ptr, i32, i32, [8 x i64], i32, i32, i32, i32, i32, i32, i32, ptr, ptr, i32, i32, i32, i32, i32, i32, i32, i32, i32, i32, ptr, ptr, i32, i32, ptr, ptr, ptr, ptr, i32, i32, i64, i32, i32, i64, ptr, i64, ptr, i32, ptr, i32 }
%struct.AVRational = type { i32, i32 }
%struct.AVChannelLayout = type { i32, i32, %union.anon.0, ptr }
%union.anon.0 = type { i64 }

; Function Attrs: cold nounwind optsize uwtable
define internal i32 @raw_encode_init(ptr noundef %0) #0 {
  %2 = alloca ptr, align 8
  %3 = alloca ptr, align 8
  store ptr %0, ptr %2, align 8, !tbaa !4
  call void @llvm.lifetime.start.p0(i64 8, ptr %3) #6
  %4 = load ptr, ptr %2, align 8, !tbaa !4
  %5 = getelementptr inbounds nuw %struct.AVCodecContext, ptr %4, i32 0, i32 23
  %6 = load i32, ptr %5, align 8, !tbaa !9
  %7 = call ptr @av_pix_fmt_desc_get(i32 noundef %6)
  store ptr %7, ptr %3, align 8, !tbaa !29
  %8 = load ptr, ptr %3, align 8, !tbaa !29
  %9 = call i32 @av_get_bits_per_pixel(ptr noundef %8)
  %10 = load ptr, ptr %2, align 8, !tbaa !4
  %11 = getelementptr inbounds nuw %struct.AVCodecContext, ptr %10, i32 0, i32 114
  store i32 %9, ptr %11, align 8, !tbaa !31
  %12 = load ptr, ptr %2, align 8, !tbaa !4
  %13 = getelementptr inbounds nuw %struct.AVCodecContext, ptr %12, i32 0, i32 5
  %14 = load i32, ptr %13, align 4, !tbaa !32
  %15 = icmp ne i32 %14, 0
  br i1 %15, label %23, label %16

16:                                               ; preds = %1
  %17 = load ptr, ptr %2, align 8, !tbaa !4
  %18 = getelementptr inbounds nuw %struct.AVCodecContext, ptr %17, i32 0, i32 23
  %19 = load i32, ptr %18, align 8, !tbaa !9
  %20 = call i32 @avcodec_pix_fmt_to_codec_tag(i32 noundef %19)
  %21 = load ptr, ptr %2, align 8, !tbaa !4
  %22 = getelementptr inbounds nuw %struct.AVCodecContext, ptr %21, i32 0, i32 5
  store i32 %20, ptr %22, align 4, !tbaa !32
  br label %23

23:                                               ; preds = %16, %1
  %24 = load ptr, ptr %2, align 8, !tbaa !4
  %25 = call i64 @ff_guess_coded_bitrate(ptr noundef %24)
  %26 = load ptr, ptr %2, align 8, !tbaa !4
  %27 = getelementptr inbounds nuw %struct.AVCodecContext, ptr %26, i32 0, i32 9
  store i64 %25, ptr %27, align 8, !tbaa !33
  call void @llvm.lifetime.end.p0(i64 8, ptr %3) #6
  ret i32 0
}