; Function Attrs: cold nounwind optsize uwtable
define internal noundef i32 @raw_encode_init(ptr noundef initializes((648, 652)) %0) #0 {
  %2 = getelementptr inbounds nuw i8, ptr %0, i64 136
  %3 = load i32, ptr %2, align 8, !tbaa !4
  %4 = tail call ptr @av_pix_fmt_desc_get(i32 noundef %3) #4
  %5 = tail call i32 @av_get_bits_per_pixel(ptr noundef %4) #4
  %6 = getelementptr inbounds nuw i8, ptr %0, i64 648
  store i32 %5, ptr %6, align 8, !tbaa !27
  %7 = getelementptr inbounds nuw i8, ptr %0, i64 28
  %8 = load i32, ptr %7, align 4, !tbaa !28
  %.not = icmp eq i32 %8, 0
  br i1 %.not, label %9, label %12

9:                                                ; preds = %1
  %10 = load i32, ptr %2, align 8, !tbaa !4
  %11 = tail call i32 @avcodec_pix_fmt_to_codec_tag(i32 noundef %10) #4
  store i32 %11, ptr %7, align 4, !tbaa !28
  br label %12

12:                                               ; preds = %9, %1
  %13 = tail call i64 @ff_guess_coded_bitrate(ptr noundef nonnull %0) #4
  %14 = getelementptr inbounds nuw i8, ptr %0, i64 56
  store i64 %13, ptr %14, align 8, !tbaa !29
  ret i32 0
}